target datalayout = "e-m:e-p270:32:32-p271:32:32-p272:64:64-i64:64-i128:128-f80:128-n8:16:32:64-S128"
target triple = "x86_64-pc-linux-gnu"

%struct.quic_datagram = type { ptr, %struct.quic_packet_info, i64, i8 }
%struct.quic_packet_info = type { ptr, i64, %struct.quic_decrypt_result, i8, i8, i8, i8 }
%struct.quic_decrypt_result = type { ptr, ptr, i32 }

@proto_quic = internal global i32 0, align 4

; Function Attrs: null_pointer_is_valid sspstrong uwtable
define hidden void @quic_add_connection(ptr noundef %0, ptr noundef %1) #0 {
  %3 = alloca ptr, align 8
  %4 = alloca ptr, align 8
  %5 = alloca ptr, align 8
  store ptr %0, ptr %3, align 8
  store ptr %1, ptr %4, align 8
  call void @llvm.lifetime.start.p0(i64 8, ptr %5) #19
  %6 = call ptr @wmem_file_scope()
  %7 = load ptr, ptr %3, align 8
  %8 = load i32, ptr @proto_quic, align 4
  %9 = call ptr @p_get_proto_data(ptr noundef %6, ptr noundef %7, i32 noundef %8, i32 noundef 0)
  store ptr %9, ptr %5, align 8
  %10 = load ptr, ptr %5, align 8
  %11 = icmp ne ptr %10, null
  br i1 %11, label %12, label %27

12:                                               ; preds = %2
  %13 = load ptr, ptr %5, align 8
  %14 = getelementptr inbounds nuw %struct.quic_datagram, ptr %13, i32 0, i32 0
  %15 = load ptr, ptr %14, align 8
  %16 = icmp ne ptr %15, null
  br i1 %16, label %17, label %27

17:                                               ; preds = %12
  %18 = load ptr, ptr %5, align 8
  %19 = getelementptr inbounds nuw %struct.quic_datagram, ptr %18, i32 0, i32 0
  %20 = load ptr, ptr %19, align 8
  %21 = load ptr, ptr %4, align 8
  %22 = load ptr, ptr %5, align 8
  %23 = getelementptr inbounds nuw %struct.quic_datagram, ptr %22, i32 0, i32 3
  %24 = load i8, ptr %23, align 8
  %25 = and i8 %24, 1
  %26 = trunc i8 %25 to i1
  call void @quic_connection_add_cid(ptr noundef %20, ptr noundef %21, i1 noundef zeroext %26)
  br label %27

27:                                               ; preds = %17, %12, %2
  call void @llvm.lifetime.end.p0(i64 8, ptr %5) #19
  ret void
}