; Function Attrs: null_pointer_is_valid sspstrong uwtable
define hidden void @quic_add_connection(ptr noundef %0, ptr noundef captures(none) %1) local_unnamed_addr #0 {
  %3 = tail call ptr @wmem_file_scope()
  %4 = load i32, ptr @proto_quic, align 4
  %5 = tail call ptr @p_get_proto_data(ptr noundef %3, ptr noundef %0, i32 noundef %4, i32 noundef 0)
  %.not = icmp eq ptr %5, null
  br i1 %.not, label %12, label %6

6:                                                ; preds = %2
  %7 = load ptr, ptr %5, align 8
  %.not7 = icmp eq ptr %7, null
  br i1 %.not7, label %12, label %8

8:                                                ; preds = %6
  %9 = getelementptr inbounds nuw i8, ptr %5, i64 64
  %10 = load i8, ptr %9, align 8
  %11 = trunc i8 %10 to i1
  tail call fastcc void @quic_connection_add_cid(ptr noundef %7, ptr noundef %1, i1 noundef zeroext %11)
  br label %12

12:                                               ; preds = %8, %6, %2
  ret void
}